; Function Attrs: mustprogress uwtable
define hidden void @_ZN2cv6detail8tracking7feature15CvHaarEvaluator16generateFeaturesEv(ptr noundef nonnull align 8 dereferenceable(360) %0) unnamed_addr #1 align 2 {
  %2 = getelementptr inbounds nuw i8, ptr %0, i64 32
  %3 = load ptr, ptr %2, align 8, !tbaa !20
  %4 = getelementptr inbounds nuw i8, ptr %3, i64 16
  %5 = load i32, ptr %4, align 8, !tbaa !12
  %6 = load ptr, ptr %0, align 8, !tbaa !3
  %7 = getelementptr inbounds nuw i8, ptr %6, i64 40
  %8 = load ptr, ptr %7, align 8
  tail call void %8(ptr noundef nonnull align 8 dereferenceable(360) %0, i32 noundef %5)
  ret void
}